; ModuleID = '50/995.c'
source_filename = "50/995.c"
target datalayout = "e-m:e-p270:32:32-p271:32:32-p272:64:64-i64:64-f80:128-n8:16:32:64-S128"
target triple = "x86_64-pc-linux-gnu"

@.str = private unnamed_addr constant [3 x i8] c"%d\00", align 1
@.str.1 = private unnamed_addr constant [4 x i8] c"%d\0A\00", align 1

; Function Attrs: noinline nounwind uwtable
define dso_local i32 @day(i32 %0) #0 {
  %2 = alloca i32, align 4
  %3 = alloca i32, align 4
  store i32 %0, i32* %2, align 4
  %4 = load i32, i32* %2, align 4
  %5 = icmp eq i32 %4, 1
  br i1 %5, label %21, label %6

6:                                                ; preds = %1
  %7 = load i32, i32* %2, align 4
  %8 = icmp eq i32 %7, 3
  br i1 %8, label %21, label %9

9:                                                ; preds = %6
  %10 = load i32, i32* %2, align 4
  %11 = icmp eq i32 %10, 5
  br i1 %11, label %21, label %12

12:                                               ; preds = %9
  %13 = load i32, i32* %2, align 4
  %14 = icmp eq i32 %13, 7
  br i1 %14, label %21, label %15

15:                                               ; preds = %12
  %16 = load i32, i32* %2, align 4
  %17 = icmp eq i32 %16, 8
  br i1 %17, label %21, label %18

18:                                               ; preds = %15
  %19 = load i32, i32* %2, align 4
  %20 = icmp eq i32 %19, 10
  br i1 %20, label %21, label %22

21:                                               ; preds = %18, %15, %12, %9, %6, %1
  store i32 31, i32* %3, align 4
  br label %33

22:                                               ; preds = %18
  %23 = load i32, i32* %2, align 4
  %24 = icmp eq i32 %23, 2
  br i1 %24, label %25, label %26

25:                                               ; preds = %22
  store i32 28, i32* %3, align 4
  br label %32

26:                                               ; preds = %22
  %27 = load i32, i32* %2, align 4
  %28 = icmp eq i32 %27, 0
  br i1 %28, label %29, label %30

29:                                               ; preds = %26
  store i32 0, i32* %3, align 4
  br label %31

30:                                               ; preds = %26
  store i32 30, i32* %3, align 4
  br label %31

31:                                               ; preds = %30, %29
  br label %32

32:                                               ; preds = %31, %25
  br label %33

33:                                               ; preds = %32, %21
  %34 = load i32, i32* %3, align 4
  ret i32 %34
}

; Function Attrs: noinline nounwind uwtable
define dso_local i32 @main() #0 {
  %1 = alloca i32, align 4
  %2 = alloca i32, align 4
  %3 = alloca i32, align 4
  %4 = alloca i32, align 4
  store i32 0, i32* %1, align 4
  store i32 0, i32* %4, align 4
  %5 = call i32 (i8*, ...) @__isoc99_scanf(i8* getelementptr inbounds ([3 x i8], [3 x i8]* @.str, i64 0, i64 0), i32* %3)
  %6 = load i32, i32* %3, align 4
  %7 = add nsw i32 6, %6
  %8 = sub nsw i32 %7, 1
  store i32 %8, i32* %3, align 4
  %9 = load i32, i32* %3, align 4
  %10 = icmp sgt i32 %9, 7
  br i1 %10, label %11, label %14

11:                                               ; preds = %0
  %12 = load i32, i32* %3, align 4
  %13 = sub nsw i32 %12, 7
  store i32 %13, i32* %3, align 4
  br label %14

14:                                               ; preds = %11, %0
  store i32 0, i32* %2, align 4
  br label %15

15:                                               ; preds = %37, %14
  %16 = load i32, i32* %2, align 4
  %17 = icmp slt i32 %16, 12
  br i1 %17, label %18, label %40

18:                                               ; preds = %15
  %19 = load i32, i32* %2, align 4
  %20 = call i32 @day(i32 %19)
  %21 = srem i32 %20, 7
  %22 = load i32, i32* %3, align 4
  %23 = add nsw i32 %21, %22
  store i32 %23, i32* %3, align 4
  %24 = load i32, i32* %3, align 4
  %25 = icmp sgt i32 %24, 7
  br i1 %25, label %26, label %29

26:                                               ; preds = %18
  %27 = load i32, i32* %3, align 4
  %28 = sub nsw i32 %27, 7
  store i32 %28, i32* %3, align 4
  br label %29

29:                                               ; preds = %26, %18
  %30 = load i32, i32* %3, align 4
  %31 = icmp eq i32 %30, 5
  br i1 %31, label %32, label %36

32:                                               ; preds = %29
  %33 = load i32, i32* %2, align 4
  %34 = add nsw i32 %33, 1
  %35 = call i32 (i8*, ...) @printf(i8* getelementptr inbounds ([4 x i8], [4 x i8]* @.str.1, i64 0, i64 0), i32 %34)
  br label %36

36:                                               ; preds = %32, %29
  br label %37

37:                                               ; preds = %36
  %38 = load i32, i32* %2, align 4
  %39 = add nsw i32 %38, 1
  store i32 %39, i32* %2, align 4
  br label %15

40:                                               ; preds = %15
  ret i32 0
}

declare dso_local i32 @__isoc99_scanf(i8*, ...) #1

declare dso_local i32 @printf(i8*, ...) #1


!llvm.module.flags = !{!0}
!llvm.ident = !{!1}

!0 = !{i32 1, !"wchar_size", i32 4}
!1 = !{!"clang version 10.0.0-4ubuntu1 "}
