; ModuleID = 'source-C-CXX/49/995.c'
source_filename = "source-C-CXX/49/995.c"
target datalayout = "e-m:e-p270:32:32-p271:32:32-p272:64:64-i64:64-f80:128-n8:16:32:64-S128"
target triple = "x86_64-pc-linux-gnu"

@.str = private unnamed_addr constant [3 x i8] c"%d\00", align 1
@.str.1 = private unnamed_addr constant [4 x i8] c"%d\0A\00", align 1
@switch.table.day = private unnamed_addr constant [11 x i32] [i32 0, i32 31, i32 28, i32 31, i32 30, i32 31, i32 30, i32 31, i32 31, i32 30, i32 31], align 4

; Function Attrs: mustprogress nofree norecurse nosync nounwind readnone sspstrong uwtable willreturn
define dso_local i32 @day(i32 %0) local_unnamed_addr #0 {
  %2 = icmp ult i32 %0, 11
  br i1 %2, label %3, label %7

3:                                                ; preds = %1
  %4 = sext i32 %0 to i64
  %5 = getelementptr inbounds [11 x i32], [11 x i32]* @switch.table.day, i64 0, i64 %4
  %6 = load i32, i32* %5, align 4
  br label %7

7:                                                ; preds = %1, %3
  %8 = phi i32 [ %6, %3 ], [ 30, %1 ]
  ret i32 %8
}

; Function Attrs: argmemonly mustprogress nofree nosync nounwind willreturn
declare void @llvm.lifetime.start.p0i8(i64 immarg, i8* nocapture) #1

; Function Attrs: argmemonly mustprogress nofree nosync nounwind willreturn
declare void @llvm.lifetime.end.p0i8(i64 immarg, i8* nocapture) #1

; Function Attrs: nofree nounwind sspstrong uwtable
define dso_local i32 @main() local_unnamed_addr #2 {
  %1 = alloca i32, align 4
  %2 = bitcast i32* %1 to i8*
  call void @llvm.lifetime.start.p0i8(i64 4, i8* nonnull %2) #4
  %3 = call i32 (i8*, ...) @__isoc99_scanf(i8* getelementptr inbounds ([3 x i8], [3 x i8]* @.str, i64 0, i64 0), i32* nonnull %1)
  %4 = load i32, i32* %1, align 4, !tbaa !5
  %5 = icmp sgt i32 %4, 2
  %6 = select i1 %5, i32 -2, i32 5
  %7 = add nsw i32 %6, %4
  %8 = icmp sgt i32 %7, 7
  %9 = add nsw i32 %7, -7
  %10 = select i1 %8, i32 %9, i32 %7
  store i32 %10, i32* %1, align 4, !tbaa !5
  %11 = icmp eq i32 %10, 5
  br i1 %11, label %12, label %14

12:                                               ; preds = %0
  %13 = call i32 (i8*, ...) @printf(i8* nonnull dereferenceable(1) getelementptr inbounds ([4 x i8], [4 x i8]* @.str.1, i64 0, i64 0), i32 1)
  br label %14

14:                                               ; preds = %12, %0
  %15 = load i32, i32* %1, align 4, !tbaa !5
  %16 = icmp sgt i32 %15, 4
  %17 = select i1 %16, i32 -4, i32 3
  %18 = add nsw i32 %15, %17
  store i32 %18, i32* %1, align 4, !tbaa !5
  %19 = icmp eq i32 %18, 5
  br i1 %19, label %20, label %22

20:                                               ; preds = %14
  %21 = call i32 (i8*, ...) @printf(i8* nonnull dereferenceable(1) getelementptr inbounds ([4 x i8], [4 x i8]* @.str.1, i64 0, i64 0), i32 2)
  br label %22

22:                                               ; preds = %20, %14
  %23 = load i32, i32* %1, align 4, !tbaa !5
  %24 = icmp sgt i32 %23, 7
  %25 = add nsw i32 %23, -7
  %26 = select i1 %24, i32 %25, i32 %23
  store i32 %26, i32* %1, align 4, !tbaa !5
  %27 = icmp eq i32 %26, 5
  br i1 %27, label %28, label %30

28:                                               ; preds = %22
  %29 = call i32 (i8*, ...) @printf(i8* nonnull dereferenceable(1) getelementptr inbounds ([4 x i8], [4 x i8]* @.str.1, i64 0, i64 0), i32 3)
  br label %30

30:                                               ; preds = %22, %28
  %31 = load i32, i32* %1, align 4, !tbaa !5
  %32 = icmp sgt i32 %31, 4
  %33 = select i1 %32, i32 -4, i32 3
  %34 = add nsw i32 %31, %33
  store i32 %34, i32* %1, align 4, !tbaa !5
  %35 = icmp eq i32 %34, 5
  br i1 %35, label %36, label %38

36:                                               ; preds = %30
  %37 = call i32 (i8*, ...) @printf(i8* nonnull dereferenceable(1) getelementptr inbounds ([4 x i8], [4 x i8]* @.str.1, i64 0, i64 0), i32 4)
  br label %38

38:                                               ; preds = %36, %30
  %39 = load i32, i32* %1, align 4, !tbaa !5
  %40 = icmp sgt i32 %39, 5
  %41 = select i1 %40, i32 -5, i32 2
  %42 = add nsw i32 %39, %41
  store i32 %42, i32* %1, align 4, !tbaa !5
  %43 = icmp eq i32 %42, 5
  br i1 %43, label %44, label %46

44:                                               ; preds = %38
  %45 = call i32 (i8*, ...) @printf(i8* nonnull dereferenceable(1) getelementptr inbounds ([4 x i8], [4 x i8]* @.str.1, i64 0, i64 0), i32 5)
  br label %46

46:                                               ; preds = %38, %44
  %47 = load i32, i32* %1, align 4, !tbaa !5
  %48 = icmp sgt i32 %47, 4
  %49 = select i1 %48, i32 -4, i32 3
  %50 = add nsw i32 %47, %49
  store i32 %50, i32* %1, align 4, !tbaa !5
  %51 = icmp eq i32 %50, 5
  br i1 %51, label %52, label %54

52:                                               ; preds = %46
  %53 = call i32 (i8*, ...) @printf(i8* nonnull dereferenceable(1) getelementptr inbounds ([4 x i8], [4 x i8]* @.str.1, i64 0, i64 0), i32 6)
  br label %54

54:                                               ; preds = %52, %46
  %55 = load i32, i32* %1, align 4, !tbaa !5
  %56 = icmp sgt i32 %55, 5
  %57 = select i1 %56, i32 -5, i32 2
  %58 = add nsw i32 %55, %57
  store i32 %58, i32* %1, align 4, !tbaa !5
  %59 = icmp eq i32 %58, 5
  br i1 %59, label %60, label %62

60:                                               ; preds = %54
  %61 = call i32 (i8*, ...) @printf(i8* nonnull dereferenceable(1) getelementptr inbounds ([4 x i8], [4 x i8]* @.str.1, i64 0, i64 0), i32 7)
  br label %62

62:                                               ; preds = %54, %60
  %63 = load i32, i32* %1, align 4, !tbaa !5
  %64 = icmp sgt i32 %63, 4
  %65 = select i1 %64, i32 -4, i32 3
  %66 = add nsw i32 %63, %65
  store i32 %66, i32* %1, align 4, !tbaa !5
  %67 = icmp eq i32 %66, 5
  br i1 %67, label %68, label %70

68:                                               ; preds = %62
  %69 = call i32 (i8*, ...) @printf(i8* nonnull dereferenceable(1) getelementptr inbounds ([4 x i8], [4 x i8]* @.str.1, i64 0, i64 0), i32 8)
  br label %70

70:                                               ; preds = %62, %68
  %71 = load i32, i32* %1, align 4, !tbaa !5
  %72 = icmp sgt i32 %71, 4
  %73 = select i1 %72, i32 -4, i32 3
  %74 = add nsw i32 %71, %73
  store i32 %74, i32* %1, align 4, !tbaa !5
  %75 = icmp eq i32 %74, 5
  br i1 %75, label %76, label %78

76:                                               ; preds = %70
  %77 = call i32 (i8*, ...) @printf(i8* nonnull dereferenceable(1) getelementptr inbounds ([4 x i8], [4 x i8]* @.str.1, i64 0, i64 0), i32 9)
  br label %78

78:                                               ; preds = %76, %70
  %79 = load i32, i32* %1, align 4, !tbaa !5
  %80 = icmp sgt i32 %79, 5
  %81 = select i1 %80, i32 -5, i32 2
  %82 = add nsw i32 %79, %81
  store i32 %82, i32* %1, align 4, !tbaa !5
  %83 = icmp eq i32 %82, 5
  br i1 %83, label %84, label %86

84:                                               ; preds = %78
  %85 = call i32 (i8*, ...) @printf(i8* nonnull dereferenceable(1) getelementptr inbounds ([4 x i8], [4 x i8]* @.str.1, i64 0, i64 0), i32 10)
  br label %86

86:                                               ; preds = %78, %84
  %87 = load i32, i32* %1, align 4, !tbaa !5
  %88 = icmp sgt i32 %87, 4
  %89 = select i1 %88, i32 -4, i32 3
  %90 = add nsw i32 %87, %89
  store i32 %90, i32* %1, align 4, !tbaa !5
  %91 = icmp eq i32 %90, 5
  br i1 %91, label %92, label %94

92:                                               ; preds = %86
  %93 = call i32 (i8*, ...) @printf(i8* nonnull dereferenceable(1) getelementptr inbounds ([4 x i8], [4 x i8]* @.str.1, i64 0, i64 0), i32 11)
  br label %94

94:                                               ; preds = %92, %86
  %95 = load i32, i32* %1, align 4, !tbaa !5
  %96 = icmp sgt i32 %95, 5
  %97 = select i1 %96, i32 -5, i32 2
  %98 = add nsw i32 %95, %97
  store i32 %98, i32* %1, align 4, !tbaa !5
  %99 = icmp eq i32 %98, 5
  br i1 %99, label %100, label %102

100:                                              ; preds = %94
  %101 = call i32 (i8*, ...) @printf(i8* nonnull dereferenceable(1) getelementptr inbounds ([4 x i8], [4 x i8]* @.str.1, i64 0, i64 0), i32 12)
  br label %102

102:                                              ; preds = %100, %94
  call void @llvm.lifetime.end.p0i8(i64 4, i8* nonnull %2) #4
  ret i32 0
}

; Function Attrs: nofree nounwind
declare noundef i32 @__isoc99_scanf(i8* nocapture noundef readonly, ...) local_unnamed_addr #3

; Function Attrs: nofree nounwind
declare noundef i32 @printf(i8* nocapture noundef readonly, ...) local_unnamed_addr #3


!llvm.module.flags = !{!0, !1, !2, !3}
!llvm.ident = !{!4}

!0 = !{i32 1, !"wchar_size", i32 4}
!1 = !{i32 7, !"PIC Level", i32 2}
!2 = !{i32 7, !"PIE Level", i32 2}
!3 = !{i32 7, !"uwtable", i32 1}
!4 = !{!"clang version 13.0.0"}
!5 = !{!6, !6, i64 0}
!6 = !{!"int", !7, i64 0}
!7 = !{!"omnipotent char", !8, i64 0}
!8 = !{!"Simple C/C++ TBAA"}
